target datalayout = "e-m:e-p270:32:32-p271:32:32-p272:64:64-i64:64-i128:128-f80:128-n8:16:32:64-S128"
target triple = "x86_64-pc-linux-gnu"

%"class.std::__cxx11::basic_string" = type { %"struct.std::__cxx11::basic_string<char>::_Alloc_hider", i64, %union.anon }
%"struct.std::__cxx11::basic_string<char>::_Alloc_hider" = type { ptr }
%union.anon = type { i64, [8 x i8] }

; Function Attrs: mustprogress nounwind uwtable
define available_externally noundef ptr @_ZNKSt7__cxx1112basic_stringIcSt11char_traitsIcESaIcEE7_M_dataEv(ptr noundef nonnull align 8 dereferenceable(32) %0) #2 align 2 {
  %2 = alloca ptr, align 8
  store ptr %0, ptr %2, align 8, !tbaa !3
  %3 = load ptr, ptr %2, align 8
  %4 = getelementptr inbounds nuw %"class.std::__cxx11::basic_string", ptr %3, i32 0, i32 0
  %5 = getelementptr inbounds nuw %"struct.std::__cxx11::basic_string<char>::_Alloc_hider", ptr %4, i32 0, i32 0
  %6 = load ptr, ptr %5, align 8, !tbaa !65
  ret ptr %6
}

; Function Attrs: noinline noreturn nounwind uwtable
define linkonce_odr hidden void @__clang_call_terminate(ptr noundef %0) #4 comdat {
  %2 = call ptr @__cxa_begin_catch(ptr %0) #16
  call void @_ZSt9terminatev() #17
  unreachable
}

; Function Attrs: inlinehint mustprogress nounwind uwtable
define internal noundef zeroext i1 @_ZN5osgeo4proj8internalL6EQUALNEPKcS3_m(ptr noundef %0, ptr noundef %1, i64 noundef %2) #3 {
  %4 = alloca ptr, align 8
  %5 = alloca ptr, align 8
  %6 = alloca i64, align 8
  store ptr %0, ptr %4, align 8, !tbaa !16
  store ptr %1, ptr %5, align 8, !tbaa !16
  store i64 %2, ptr %6, align 8, !tbaa !8
  %7 = load ptr, ptr %4, align 8, !tbaa !16
  %8 = load ptr, ptr %5, align 8, !tbaa !16
  %9 = load i64, ptr %6, align 8, !tbaa !8
  %10 = call i32 @strncasecmp(ptr noundef %7, ptr noundef %8, i64 noundef %9) #18
  %11 = icmp eq i32 %10, 0
  ret i1 %11
}

; Function Attrs: mustprogress nounwind uwtable
define available_externally noundef ptr @_ZNKSt7__cxx1112basic_stringIcSt11char_traitsIcESaIcEE5c_strEv(ptr noundef nonnull align 8 dereferenceable(32) %0) #2 align 2 personality ptr @__gxx_personality_v0 {
  %2 = alloca ptr, align 8
  store ptr %0, ptr %2, align 8, !tbaa !3
  %3 = load ptr, ptr %2, align 8
  %4 = invoke noundef ptr @_ZNKSt7__cxx1112basic_stringIcSt11char_traitsIcESaIcEE7_M_dataEv(ptr noundef nonnull align 8 dereferenceable(32) %3)
          to label %5 unwind label %6

5:                                                ; preds = %1
  ret ptr %4

6:                                                ; preds = %1
  %7 = landingpad { ptr, i32 }
          catch ptr null
  %8 = extractvalue { ptr, i32 } %7, 0
  call void @__clang_call_terminate(ptr %8) #17
  unreachable
}

; Function Attrs: mustprogress nounwind uwtable
define available_externally noundef i64 @_ZNKSt7__cxx1112basic_stringIcSt11char_traitsIcESaIcEE4sizeEv(ptr noundef nonnull align 8 dereferenceable(32) %0) #2 align 2 {
  %2 = alloca ptr, align 8
  store ptr %0, ptr %2, align 8, !tbaa !3
  %3 = load ptr, ptr %2, align 8
  %4 = getelementptr inbounds nuw %"class.std::__cxx11::basic_string", ptr %3, i32 0, i32 1
  %5 = load i64, ptr %4, align 8, !tbaa !12
  ret i64 %5
}

; Function Attrs: mustprogress nounwind uwtable
define noundef i64 @_ZN5osgeo4proj8internal7ci_findERKNSt7__cxx1112basic_stringIcSt11char_traitsIcESaIcEEEPKc(ptr noundef nonnull align 8 dereferenceable(32) %0, ptr noundef %1) #2 personality ptr @__gxx_personality_v0 {
  %3 = alloca i64, align 8
  %4 = alloca ptr, align 8
  %5 = alloca ptr, align 8
  %6 = alloca i64, align 8
  %7 = alloca i64, align 8
  %8 = alloca i32, align 4
  store ptr %0, ptr %4, align 8, !tbaa !3
  store ptr %1, ptr %5, align 8, !tbaa !16
  call void @llvm.lifetime.start.p0(i64 8, ptr %6) #16
  %9 = load ptr, ptr %5, align 8, !tbaa !16
  %10 = call i64 @strlen(ptr noundef %9) #18
  store i64 %10, ptr %6, align 8, !tbaa !8
  call void @llvm.lifetime.start.p0(i64 8, ptr %7) #16
  store i64 0, ptr %7, align 8, !tbaa !8
  br label %11

11:                                               ; preds = %31, %2
  %12 = load i64, ptr %7, align 8, !tbaa !8
  %13 = load i64, ptr %6, align 8, !tbaa !8
  %14 = add i64 %12, %13
  %15 = load ptr, ptr %4, align 8, !tbaa !3
  %16 = call noundef i64 @_ZNKSt7__cxx1112basic_stringIcSt11char_traitsIcESaIcEE4sizeEv(ptr noundef nonnull align 8 dereferenceable(32) %15) #16
  %17 = icmp ule i64 %14, %16
  br i1 %17, label %19, label %18

18:                                               ; preds = %11
  store i32 2, ptr %8, align 4
  br label %34

19:                                               ; preds = %11
  %20 = load ptr, ptr %4, align 8, !tbaa !3
  %21 = call noundef ptr @_ZNKSt7__cxx1112basic_stringIcSt11char_traitsIcESaIcEE5c_strEv(ptr noundef nonnull align 8 dereferenceable(32) %20) #16
  %22 = load i64, ptr %7, align 8, !tbaa !8
  %23 = getelementptr inbounds nuw i8, ptr %21, i64 %22
  %24 = load ptr, ptr %5, align 8, !tbaa !16
  %25 = load i64, ptr %6, align 8, !tbaa !8
  %26 = invoke noundef zeroext i1 @_ZN5osgeo4proj8internalL6EQUALNEPKcS3_m(ptr noundef %23, ptr noundef %24, i64 noundef %25)
          to label %27 unwind label %39

27:                                               ; preds = %19
  br i1 %26, label %28, label %30

28:                                               ; preds = %27
  %29 = load i64, ptr %7, align 8, !tbaa !8
  store i64 %29, ptr %3, align 8
  store i32 1, ptr %8, align 4
  br label %34

30:                                               ; preds = %27
  br label %31

31:                                               ; preds = %30
  %32 = load i64, ptr %7, align 8, !tbaa !8
  %33 = add i64 %32, 1
  store i64 %33, ptr %7, align 8, !tbaa !8
  br label %11, !llvm.loop !20

34:                                               ; preds = %28, %18
  call void @llvm.lifetime.end.p0(i64 8, ptr %7) #16
  %35 = load i32, ptr %8, align 4
  switch i32 %35, label %37 [
    i32 2, label %36
  ]

36:                                               ; preds = %34
  store i64 -1, ptr %3, align 8
  store i32 1, ptr %8, align 4
  br label %37

37:                                               ; preds = %36, %34
  call void @llvm.lifetime.end.p0(i64 8, ptr %6) #16
  %38 = load i64, ptr %3, align 8
  ret i64 %38

39:                                               ; preds = %19
  %40 = landingpad { ptr, i32 }
          catch ptr null
  %41 = extractvalue { ptr, i32 } %40, 0
  call void @__clang_call_terminate(ptr %41) #17
  unreachable
}