; Function Attrs: mustprogress nofree nounwind willreturn memory(read) uwtable
define noundef i64 @_ZN5osgeo4proj8internal7ci_findERKNSt7__cxx1112basic_stringIcSt11char_traitsIcESaIcEEEPKc(ptr noundef nonnull readonly align 8 captures(none) dereferenceable(32) %0, ptr noundef readonly captures(none) %1) local_unnamed_addr #2 personality ptr @__gxx_personality_v0 {
  %3 = tail call i64 @strlen(ptr noundef nonnull dereferenceable(1) %1) #24
  %4 = getelementptr inbounds nuw i8, ptr %0, i64 8
  %5 = load i64, ptr %4, align 8, !tbaa !12
  %.not13 = icmp ugt i64 %3, %5
  br i1 %.not13, label %._crit_edge, label %.lr.ph

.lr.ph:                                           ; preds = %2
  %6 = load ptr, ptr %0, align 8, !tbaa !9
  %invariant.op = add i64 %3, 1
  br label %7

7:                                                ; preds = %.lr.ph, %11
  %.01114 = phi i64 [ 0, %.lr.ph ], [ %12, %11 ]
  %8 = getelementptr inbounds nuw i8, ptr %6, i64 %.01114
  %9 = tail call i32 @strncasecmp(ptr noundef readonly %8, ptr noundef nonnull readonly %1, i64 noundef %3) #24
  %10 = icmp eq i32 %9, 0
  br i1 %10, label %._crit_edge, label %11

11:                                               ; preds = %7
  %12 = add i64 %.01114, 1
  %.reass = add i64 %.01114, %invariant.op
  %.not = icmp ugt i64 %.reass, %5
  br i1 %.not, label %._crit_edge, label %7, !llvm.loop !22

._crit_edge:                                      ; preds = %11, %7, %2
  %spec.select = phi i64 [ -1, %2 ], [ %.01114, %7 ], [ -1, %11 ]
  ret i64 %spec.select
}